; Function Attrs: nounwind uwtable
define i32 @Abc_ConvertAigToGia(ptr noundef %0, ptr noundef captures(none) %1) local_unnamed_addr #2 {
  %3 = getelementptr i8, ptr %1, i64 32
  %.val = load i32, ptr %3, align 8
  %4 = and i32 %.val, 7
  %.not = icmp eq i32 %4, 1
  br i1 %.not, label %7, label %5

5:                                                ; preds = %2
  tail call void @Abc_ConvertAigToGia_rec1(ptr noundef %0, ptr noundef nonnull %1)
  tail call void @Abc_ConvertAigToGia_rec2(ptr noundef nonnull %1)
  %6 = load i32, ptr %1, align 8, !tbaa !3
  br label %7

7:                                                ; preds = %2, %5
  %.0 = phi i32 [ %6, %5 ], [ 1, %2 ]
  ret i32 %.0
}